target datalayout = "e-m:e-p270:32:32-p271:32:32-p272:64:64-i64:64-i128:128-f80:128-n8:16:32:64-S128"
target triple = "x86_64-pc-linux-gnu"

%struct.crypto_ex_data_st = type { ptr }
%struct.ssl_st = type { i32, i16, i16, ptr, ptr, ptr, ptr, ptr, i32, i32, ptr, ptr, i32, i32, ptr, ptr, ptr, ptr, ptr, ptr, ptr, ptr, i32, i32, [32 x i8], ptr, ptr, ptr, ptr, ptr, ptr, ptr, i64, %struct.crypto_ex_data_st, ptr, i32, i32, i32, i32, i16, ptr, i32, i64, ptr, ptr, ptr, ptr, ptr, ptr, i32, i32, ptr, ptr, i8, i8, i32 }
%struct.bio_st = type { ptr, ptr, ptr, i32, i32, i32, i32, i32, i32, ptr, ptr, i64, i64 }

; Function Attrs: nounwind uwtable
define hidden void @SSL_set_bio(ptr noundef %0, ptr noundef %1, ptr noundef %2) #0 {
  %4 = alloca ptr, align 8
  %5 = alloca ptr, align 8
  %6 = alloca ptr, align 8
  store ptr %0, ptr %4, align 8, !tbaa !80
  store ptr %1, ptr %5, align 8, !tbaa !143
  store ptr %2, ptr %6, align 8, !tbaa !143
  %7 = load ptr, ptr %4, align 8, !tbaa !80
  %8 = getelementptr inbounds nuw %struct.ssl_st, ptr %7, i32 0, i32 6
  %9 = load ptr, ptr %8, align 8, !tbaa !127
  %10 = icmp ne ptr %9, null
  br i1 %10, label %11, label %32

11:                                               ; preds = %3
  %12 = load ptr, ptr %4, align 8, !tbaa !80
  %13 = getelementptr inbounds nuw %struct.ssl_st, ptr %12, i32 0, i32 5
  %14 = load ptr, ptr %13, align 8, !tbaa !128
  %15 = load ptr, ptr %4, align 8, !tbaa !80
  %16 = getelementptr inbounds nuw %struct.ssl_st, ptr %15, i32 0, i32 6
  %17 = load ptr, ptr %16, align 8, !tbaa !127
  %18 = icmp eq ptr %14, %17
  br i1 %18, label %19, label %31

19:                                               ; preds = %11
  %20 = load ptr, ptr %4, align 8, !tbaa !80
  %21 = getelementptr inbounds nuw %struct.ssl_st, ptr %20, i32 0, i32 5
  %22 = load ptr, ptr %21, align 8, !tbaa !128
  %23 = getelementptr inbounds nuw %struct.bio_st, ptr %22, i32 0, i32 10
  %24 = load ptr, ptr %23, align 8, !tbaa !144
  %25 = load ptr, ptr %4, align 8, !tbaa !80
  %26 = getelementptr inbounds nuw %struct.ssl_st, ptr %25, i32 0, i32 5
  store ptr %24, ptr %26, align 8, !tbaa !128
  %27 = load ptr, ptr %4, align 8, !tbaa !80
  %28 = getelementptr inbounds nuw %struct.ssl_st, ptr %27, i32 0, i32 6
  %29 = load ptr, ptr %28, align 8, !tbaa !127
  %30 = getelementptr inbounds nuw %struct.bio_st, ptr %29, i32 0, i32 10
  store ptr null, ptr %30, align 8, !tbaa !144
  br label %31

31:                                               ; preds = %19, %11
  br label %32

32:                                               ; preds = %31, %3
  %33 = load ptr, ptr %4, align 8, !tbaa !80
  %34 = getelementptr inbounds nuw %struct.ssl_st, ptr %33, i32 0, i32 4
  %35 = load ptr, ptr %34, align 8, !tbaa !129
  %36 = load ptr, ptr %5, align 8, !tbaa !143
  %37 = icmp ne ptr %35, %36
  br i1 %37, label %38, label %42

38:                                               ; preds = %32
  %39 = load ptr, ptr %4, align 8, !tbaa !80
  %40 = getelementptr inbounds nuw %struct.ssl_st, ptr %39, i32 0, i32 4
  %41 = load ptr, ptr %40, align 8, !tbaa !129
  call void @BIO_free_all(ptr noundef %41)
  br label %42

42:                                               ; preds = %38, %32
  %43 = load ptr, ptr %4, align 8, !tbaa !80
  %44 = getelementptr inbounds nuw %struct.ssl_st, ptr %43, i32 0, i32 5
  %45 = load ptr, ptr %44, align 8, !tbaa !128
  %46 = load ptr, ptr %6, align 8, !tbaa !143
  %47 = icmp ne ptr %45, %46
  br i1 %47, label %48, label %60

48:                                               ; preds = %42
  %49 = load ptr, ptr %4, align 8, !tbaa !80
  %50 = getelementptr inbounds nuw %struct.ssl_st, ptr %49, i32 0, i32 4
  %51 = load ptr, ptr %50, align 8, !tbaa !129
  %52 = load ptr, ptr %4, align 8, !tbaa !80
  %53 = getelementptr inbounds nuw %struct.ssl_st, ptr %52, i32 0, i32 5
  %54 = load ptr, ptr %53, align 8, !tbaa !128
  %55 = icmp ne ptr %51, %54
  br i1 %55, label %56, label %60

56:                                               ; preds = %48
  %57 = load ptr, ptr %4, align 8, !tbaa !80
  %58 = getelementptr inbounds nuw %struct.ssl_st, ptr %57, i32 0, i32 5
  %59 = load ptr, ptr %58, align 8, !tbaa !128
  call void @BIO_free_all(ptr noundef %59)
  br label %60

60:                                               ; preds = %56, %48, %42
  %61 = load ptr, ptr %5, align 8, !tbaa !143
  %62 = load ptr, ptr %4, align 8, !tbaa !80
  %63 = getelementptr inbounds nuw %struct.ssl_st, ptr %62, i32 0, i32 4
  store ptr %61, ptr %63, align 8, !tbaa !129
  %64 = load ptr, ptr %6, align 8, !tbaa !143
  %65 = load ptr, ptr %4, align 8, !tbaa !80
  %66 = getelementptr inbounds nuw %struct.ssl_st, ptr %65, i32 0, i32 5
  store ptr %64, ptr %66, align 8, !tbaa !128
  ret void
}