; Function Attrs: nounwind uwtable
define hidden void @SSL_set_bio(ptr noundef captures(none) %0, ptr noundef %1, ptr noundef %2) local_unnamed_addr #0 {
  %4 = getelementptr inbounds nuw i8, ptr %0, i64 32
  %5 = load ptr, ptr %4, align 8, !tbaa !116
  %.not = icmp eq ptr %5, null
  br i1 %.not, label %14, label %6

6:                                                ; preds = %3
  %7 = getelementptr inbounds nuw i8, ptr %0, i64 24
  %8 = load ptr, ptr %7, align 8, !tbaa !117
  %9 = icmp eq ptr %8, %5
  br i1 %9, label %10, label %14

10:                                               ; preds = %6
  %11 = getelementptr inbounds nuw i8, ptr %8, i64 56
  %12 = load ptr, ptr %11, align 8, !tbaa !132
  store ptr %12, ptr %7, align 8, !tbaa !117
  %13 = getelementptr inbounds nuw i8, ptr %5, i64 56
  store ptr null, ptr %13, align 8, !tbaa !132
  br label %14

14:                                               ; preds = %6, %10, %3
  %15 = getelementptr inbounds nuw i8, ptr %0, i64 16
  %16 = load ptr, ptr %15, align 8, !tbaa !118
  %.not21 = icmp eq ptr %16, %1
  br i1 %.not21, label %18, label %17

17:                                               ; preds = %14
  tail call void @BIO_free_all(ptr noundef %16) #21
  br label %18

18:                                               ; preds = %17, %14
  %19 = getelementptr inbounds nuw i8, ptr %0, i64 24
  %20 = load ptr, ptr %19, align 8, !tbaa !117
  %.not22 = icmp eq ptr %20, %2
  br i1 %.not22, label %24, label %21

21:                                               ; preds = %18
  %22 = load ptr, ptr %15, align 8, !tbaa !118
  %.not23 = icmp eq ptr %22, %20
  br i1 %.not23, label %24, label %23

23:                                               ; preds = %21
  tail call void @BIO_free_all(ptr noundef %20) #21
  br label %24

24:                                               ; preds = %23, %21, %18
  store ptr %1, ptr %15, align 8, !tbaa !118
  store ptr %2, ptr %19, align 8, !tbaa !117
  ret void
}